; Function Attrs: mustprogress nofree nounwind uwtable
define noundef zeroext i1 @_ZN5Yosys22check_directory_existsERKNSt7__cxx1112basic_stringIcSt11char_traitsIcESaIcEEE(ptr noundef nonnull readonly align 8 captures(none) dereferenceable(32) %0) local_unnamed_addr #21 {
  %2 = alloca %struct.stat, align 8
  call void @llvm.lifetime.start.p0(i64 144, ptr nonnull %2) #39
  %3 = load ptr, ptr %0, align 8, !tbaa !44
  %4 = call i32 @stat(ptr noundef %3, ptr noundef nonnull %2) #39
  %.not = icmp eq i32 %4, 0
  %5 = getelementptr inbounds nuw i8, ptr %2, i64 24
  %6 = load i32, ptr %5, align 8
  %7 = and i32 %6, 16384
  %8 = icmp ne i32 %7, 0
  %.0 = select i1 %.not, i1 %8, i1 false
  call void @llvm.lifetime.end.p0(i64 144, ptr nonnull %2) #39
  ret i1 %.0
}